; Function Attrs: mustprogress uwtable
define dso_local noundef ptr @_ZN4Luau19getMutableTableTypeEPKNS_4TypeE(ptr noundef %0) local_unnamed_addr #2 {
  %2 = tail call noundef ptr @_ZN4Luau6followEPKNS_4TypeENS_12FollowOptionE(ptr noundef %0, i32 noundef 0)
  %.not.i.i.i = icmp eq ptr %2, null
  br i1 %.not.i.i.i, label %_ZN4Luau12getTableTypeEPKNS_4TypeE.exit, label %3

3:                                                ; preds = %1
  %4 = load i32, ptr %2, align 8, !tbaa !8
  %5 = getelementptr inbounds nuw i8, ptr %2, i64 8
  switch i32 %4, label %_ZN4Luau3getINS_9TableTypeEEEPKT_PKNS_4TypeE.exit.fold.split.i [
    i32 9, label %_ZN4Luau12getTableTypeEPKNS_4TypeE.exit
    i32 10, label %_ZN4Luau3getINS_13MetatableTypeEEEPKT_PKNS_4TypeE.exit.i
  ]

_ZN4Luau3getINS_13MetatableTypeEEEPKT_PKNS_4TypeE.exit.i: ; preds = %3
  %6 = load ptr, ptr %5, align 8, !tbaa !97
  %7 = tail call noundef ptr @_ZN4Luau6followEPKNS_4TypeENS_12FollowOptionE(ptr noundef %6, i32 noundef 0)
  %.not.i.i12.i = icmp eq ptr %7, null
  br i1 %.not.i.i12.i, label %_ZN4Luau12getTableTypeEPKNS_4TypeE.exit, label %8

8:                                                ; preds = %_ZN4Luau3getINS_13MetatableTypeEEEPKT_PKNS_4TypeE.exit.i
  %9 = load i32, ptr %7, align 8, !tbaa !8
  %10 = icmp eq i32 %9, 9
  %11 = getelementptr inbounds nuw i8, ptr %7, i64 8
  %12 = select i1 %10, ptr %11, ptr null
  br label %_ZN4Luau12getTableTypeEPKNS_4TypeE.exit

_ZN4Luau3getINS_9TableTypeEEEPKT_PKNS_4TypeE.exit.fold.split.i: ; preds = %3
  br label %_ZN4Luau12getTableTypeEPKNS_4TypeE.exit

_ZN4Luau12getTableTypeEPKNS_4TypeE.exit:          ; preds = %1, %3, %_ZN4Luau3getINS_13MetatableTypeEEEPKT_PKNS_4TypeE.exit.i, %8, %_ZN4Luau3getINS_9TableTypeEEEPKT_PKNS_4TypeE.exit.fold.split.i
  %.0.i = phi ptr [ %5, %3 ], [ %12, %8 ], [ null, %_ZN4Luau3getINS_13MetatableTypeEEEPKT_PKNS_4TypeE.exit.i ], [ null, %1 ], [ null, %_ZN4Luau3getINS_9TableTypeEEEPKT_PKNS_4TypeE.exit.fold.split.i ]
  ret ptr %.0.i
}